
GccApplication1.elf:     file format elf32-avr

Sections:
Idx Name          Size      VMA       LMA       File off  Algn
  0 .text         00000146  00000000  00000000  00000094  2**1
                  CONTENTS, ALLOC, LOAD, READONLY, CODE
  1 .data         0000000a  00800060  00000146  000001da  2**0
                  CONTENTS, ALLOC, LOAD, DATA
  2 .bss          00000002  0080006a  0080006a  000001e4  2**0
                  ALLOC
  3 .comment      00000030  00000000  00000000  000001e4  2**0
                  CONTENTS, READONLY
  4 .note.gnu.avr.deviceinfo 0000003c  00000000  00000000  00000214  2**2
                  CONTENTS, READONLY
  5 .debug_aranges 00000028  00000000  00000000  00000250  2**0
                  CONTENTS, READONLY, DEBUGGING
  6 .debug_info   00000625  00000000  00000000  00000278  2**0
                  CONTENTS, READONLY, DEBUGGING
  7 .debug_abbrev 0000055d  00000000  00000000  0000089d  2**0
                  CONTENTS, READONLY, DEBUGGING
  8 .debug_line   000002ae  00000000  00000000  00000dfa  2**0
                  CONTENTS, READONLY, DEBUGGING
  9 .debug_frame  00000044  00000000  00000000  000010a8  2**2
                  CONTENTS, READONLY, DEBUGGING
 10 .debug_str    0000034f  00000000  00000000  000010ec  2**0
                  CONTENTS, READONLY, DEBUGGING
 11 .debug_loc    000000b3  00000000  00000000  0000143b  2**0
                  CONTENTS, READONLY, DEBUGGING
 12 .debug_ranges 00000018  00000000  00000000  000014ee  2**0
                  CONTENTS, READONLY, DEBUGGING

Disassembly of section .text:

00000000 <__vectors>:
   0:	12 c0       	rjmp	.+36     	; 0x26 <__ctors_end>
   2:	2c c0       	rjmp	.+88     	; 0x5c <__bad_interrupt>
   4:	2b c0       	rjmp	.+86     	; 0x5c <__bad_interrupt>
   6:	2a c0       	rjmp	.+84     	; 0x5c <__bad_interrupt>
   8:	29 c0       	rjmp	.+82     	; 0x5c <__bad_interrupt>
   a:	28 c0       	rjmp	.+80     	; 0x5c <__bad_interrupt>
   c:	27 c0       	rjmp	.+78     	; 0x5c <__bad_interrupt>
   e:	26 c0       	rjmp	.+76     	; 0x5c <__bad_interrupt>
  10:	25 c0       	rjmp	.+74     	; 0x5c <__bad_interrupt>
  12:	24 c0       	rjmp	.+72     	; 0x5c <__bad_interrupt>
  14:	23 c0       	rjmp	.+70     	; 0x5c <__bad_interrupt>
  16:	22 c0       	rjmp	.+68     	; 0x5c <__bad_interrupt>
  18:	21 c0       	rjmp	.+66     	; 0x5c <__bad_interrupt>
  1a:	20 c0       	rjmp	.+64     	; 0x5c <__bad_interrupt>
  1c:	1f c0       	rjmp	.+62     	; 0x5c <__bad_interrupt>
  1e:	1e c0       	rjmp	.+60     	; 0x5c <__bad_interrupt>
  20:	1d c0       	rjmp	.+58     	; 0x5c <__bad_interrupt>
  22:	1c c0       	rjmp	.+56     	; 0x5c <__bad_interrupt>
  24:	1b c0       	rjmp	.+54     	; 0x5c <__bad_interrupt>

00000026 <__ctors_end>:
  26:	11 24       	eor	r1, r1
  28:	1f be       	out	0x3f, r1	; 63
  2a:	cf e5       	ldi	r28, 0x5F	; 95
  2c:	d4 e0       	ldi	r29, 0x04	; 4
  2e:	de bf       	out	0x3e, r29	; 62
  30:	cd bf       	out	0x3d, r28	; 61

00000032 <__do_copy_data>:
  32:	10 e0       	ldi	r17, 0x00	; 0
  34:	a0 e6       	ldi	r26, 0x60	; 96
  36:	b0 e0       	ldi	r27, 0x00	; 0
  38:	e6 e4       	ldi	r30, 0x46	; 70
  3a:	f1 e0       	ldi	r31, 0x01	; 1
  3c:	02 c0       	rjmp	.+4      	; 0x42 <__SREG__+0x3>
  3e:	05 90       	lpm	r0, Z+
  40:	0d 92       	st	X+, r0
  42:	aa 36       	cpi	r26, 0x6A	; 106
  44:	b1 07       	cpc	r27, r17
  46:	d9 f7       	brne	.-10     	; 0x3e <__SP_H__>

00000048 <__do_clear_bss>:
  48:	20 e0       	ldi	r18, 0x00	; 0
  4a:	aa e6       	ldi	r26, 0x6A	; 106
  4c:	b0 e0       	ldi	r27, 0x00	; 0
  4e:	01 c0       	rjmp	.+2      	; 0x52 <.do_clear_bss_start>

00000050 <.do_clear_bss_loop>:
  50:	1d 92       	st	X+, r1

00000052 <.do_clear_bss_start>:
  52:	ac 36       	cpi	r26, 0x6C	; 108
  54:	b2 07       	cpc	r27, r18
  56:	e1 f7       	brne	.-8      	; 0x50 <.do_clear_bss_loop>
  58:	2d d0       	rcall	.+90     	; 0xb4 <main>
  5a:	73 c0       	rjmp	.+230    	; 0x142 <_exit>

0000005c <__bad_interrupt>:
  5c:	d1 cf       	rjmp	.-94     	; 0x0 <__vectors>

0000005e <selectDigit>:
		}
    }
}

void selectDigit() {
	switch (digit) {
  5e:	80 91 6a 00 	lds	r24, 0x006A	; 0x80006a <__data_end>
  62:	90 91 6b 00 	lds	r25, 0x006B	; 0x80006b <__data_end+0x1>
  66:	81 30       	cpi	r24, 0x01	; 1
  68:	91 05       	cpc	r25, r1
  6a:	89 f0       	breq	.+34     	; 0x8e <selectDigit+0x30>
  6c:	1c f4       	brge	.+6      	; 0x74 <selectDigit+0x16>
  6e:	89 2b       	or	r24, r25
  70:	39 f0       	breq	.+14     	; 0x80 <selectDigit+0x22>
  72:	08 95       	ret
  74:	82 30       	cpi	r24, 0x02	; 2
  76:	91 05       	cpc	r25, r1
  78:	89 f0       	breq	.+34     	; 0x9c <selectDigit+0x3e>
  7a:	03 97       	sbiw	r24, 0x03	; 3
  7c:	b1 f0       	breq	.+44     	; 0xaa <selectDigit+0x4c>
  7e:	08 95       	ret
		
		case 0:
			digit = 1;
  80:	81 e0       	ldi	r24, 0x01	; 1
  82:	90 e0       	ldi	r25, 0x00	; 0
  84:	90 93 6b 00 	sts	0x006B, r25	; 0x80006b <__data_end+0x1>
  88:	80 93 6a 00 	sts	0x006A, r24	; 0x80006a <__data_end>
		break;
  8c:	08 95       	ret
		
		case 1:
			digit = 2;
  8e:	82 e0       	ldi	r24, 0x02	; 2
  90:	90 e0       	ldi	r25, 0x00	; 0
  92:	90 93 6b 00 	sts	0x006B, r25	; 0x80006b <__data_end+0x1>
  96:	80 93 6a 00 	sts	0x006A, r24	; 0x80006a <__data_end>
		break;
  9a:	08 95       	ret
		
		case 2:
			digit = 3;
  9c:	83 e0       	ldi	r24, 0x03	; 3
  9e:	90 e0       	ldi	r25, 0x00	; 0
  a0:	90 93 6b 00 	sts	0x006B, r25	; 0x80006b <__data_end+0x1>
  a4:	80 93 6a 00 	sts	0x006A, r24	; 0x80006a <__data_end>
		break;
  a8:	08 95       	ret
		
		case 3:
			digit = 0;
  aa:	10 92 6b 00 	sts	0x006B, r1	; 0x80006b <__data_end+0x1>
  ae:	10 92 6a 00 	sts	0x006A, r1	; 0x80006a <__data_end>
  b2:	08 95       	ret

000000b4 <main>:
static int digit = 0; 

void selectDigit();

int main()
{
  b4:	cf 93       	push	r28
  b6:	df 93       	push	r29
  b8:	cd b7       	in	r28, 0x3d	; 61
  ba:	de b7       	in	r29, 0x3e	; 62
  bc:	2e 97       	sbiw	r28, 0x0e	; 14
  be:	0f b6       	in	r0, 0x3f	; 63
  c0:	f8 94       	cli
  c2:	de bf       	out	0x3e, r29	; 62
  c4:	0f be       	out	0x3f, r0	; 63
  c6:	cd bf       	out	0x3d, r28	; 61
	// Set all PB pins for output, will control a, b, c ... dp segments
	DDRB = 0b11111111;
  c8:	8f ef       	ldi	r24, 0xFF	; 255
  ca:	87 bb       	out	0x17, r24	; 23
	// Set 4 PC pins for output, will control d1, d2 ... d4
	DDRC = 0b00001111;
  cc:	8f e0       	ldi	r24, 0x0F	; 15
  ce:	84 bb       	out	0x14, r24	; 20
	
	uint8_t digits[] = {
  d0:	8a e0       	ldi	r24, 0x0A	; 10
  d2:	e0 e6       	ldi	r30, 0x60	; 96
  d4:	f0 e0       	ldi	r31, 0x00	; 0
  d6:	de 01       	movw	r26, r28
  d8:	11 96       	adiw	r26, 0x01	; 1
  da:	01 90       	ld	r0, Z+
  dc:	0d 92       	st	X+, r0
  de:	8a 95       	dec	r24
  e0:	e1 f7       	brne	.-8      	; 0xda <main+0x26>
		0b00001001  // 9
	};
	
	// 5th Bit is set to use button input
	// and to select digit
	uint8_t ports[] = {
  e2:	81 e1       	ldi	r24, 0x11	; 17
  e4:	8b 87       	std	Y+11, r24	; 0x0b
  e6:	82 e1       	ldi	r24, 0x12	; 18
  e8:	8c 87       	std	Y+12, r24	; 0x0c
  ea:	84 e1       	ldi	r24, 0x14	; 20
  ec:	8d 87       	std	Y+13, r24	; 0x0d
  ee:	88 e1       	ldi	r24, 0x18	; 24
  f0:	8e 87       	std	Y+14, r24	; 0x0e
		0b00011000  // port 4
	};
	
	while (1) 
    {
		for (int i = 0; i < 10; i++) {
  f2:	00 e0       	ldi	r16, 0x00	; 0
  f4:	10 e0       	ldi	r17, 0x00	; 0
  f6:	21 c0       	rjmp	.+66     	; 0x13a <main+0x86>
			
			// Select digit
			if ((PINC & 0b00010000) == 0) { // 5th bit has low voltage
  f8:	9c 9b       	sbis	0x13, 4	; 19
				selectDigit();
  fa:	b1 df       	rcall	.-158    	; 0x5e <selectDigit>
			}
			
			// Set a digit
			PORTC = ports[digit];
  fc:	e0 91 6a 00 	lds	r30, 0x006A	; 0x80006a <__data_end>
 100:	f0 91 6b 00 	lds	r31, 0x006B	; 0x80006b <__data_end+0x1>
 104:	8b e0       	ldi	r24, 0x0B	; 11
 106:	90 e0       	ldi	r25, 0x00	; 0
 108:	8c 0f       	add	r24, r28
 10a:	9d 1f       	adc	r25, r29
 10c:	e8 0f       	add	r30, r24
 10e:	f9 1f       	adc	r31, r25
 110:	80 81       	ld	r24, Z
 112:	85 bb       	out	0x15, r24	; 21
			
			// Set a number
			PORTB = digits[i];
 114:	e1 e0       	ldi	r30, 0x01	; 1
 116:	f0 e0       	ldi	r31, 0x00	; 0
 118:	ec 0f       	add	r30, r28
 11a:	fd 1f       	adc	r31, r29
 11c:	e0 0f       	add	r30, r16
 11e:	f1 1f       	adc	r31, r17
 120:	80 81       	ld	r24, Z
 122:	88 bb       	out	0x18, r24	; 24
	#else
		//round up by default
		__ticks_dc = (uint32_t)(ceil(fabs(__tmp)));
	#endif

	__builtin_avr_delay_cycles(__ticks_dc);
 124:	9f e9       	ldi	r25, 0x9F	; 159
 126:	26 e8       	ldi	r18, 0x86	; 134
 128:	81 e0       	ldi	r24, 0x01	; 1
 12a:	91 50       	subi	r25, 0x01	; 1
 12c:	20 40       	sbci	r18, 0x00	; 0
 12e:	80 40       	sbci	r24, 0x00	; 0
 130:	e1 f7       	brne	.-8      	; 0x12a <main+0x76>
 132:	00 c0       	rjmp	.+0      	; 0x134 <main+0x80>
 134:	00 00       	nop
		0b00011000  // port 4
	};
	
	while (1) 
    {
		for (int i = 0; i < 10; i++) {
 136:	0f 5f       	subi	r16, 0xFF	; 255
 138:	1f 4f       	sbci	r17, 0xFF	; 255
 13a:	0a 30       	cpi	r16, 0x0A	; 10
 13c:	11 05       	cpc	r17, r1
 13e:	e4 f2       	brlt	.-72     	; 0xf8 <main+0x44>
 140:	d8 cf       	rjmp	.-80     	; 0xf2 <main+0x3e>

00000142 <_exit>:
 142:	f8 94       	cli

00000144 <__stop_program>:
 144:	ff cf       	rjmp	.-2      	; 0x144 <__stop_program>
